; Function Attrs: mustprogress nounwind uwtable
define hidden void @_ZN12ConstantPool19unreference_symbolsEv(ptr nocapture noundef nonnull readonly align 8 dereferenceable(68) %0) local_unnamed_addr #0 align 2 {
  %2 = getelementptr inbounds i8, ptr %0, i64 60
  %3 = load i32, ptr %2, align 4
  %4 = icmp sgt i32 %3, 1
  br i1 %4, label %.lr.ph, label %._crit_edge

.lr.ph:                                           ; preds = %1
  %5 = getelementptr inbounds i8, ptr %0, i64 8
  %6 = getelementptr inbounds i8, ptr %0, i64 72
  br label %7

7:                                                ; preds = %.lr.ph, %16
  %indvars.iv = phi i64 [ 1, %.lr.ph ], [ %indvars.iv.next, %16 ]
  %8 = load ptr, ptr %5, align 8
  %9 = getelementptr inbounds i8, ptr %8, i64 4
  %10 = getelementptr inbounds i8, ptr %9, i64 %indvars.iv
  %11 = load volatile i8, ptr %10, align 1
  tail call void asm sideeffect "", "~{memory},~{dirflag},~{fpsr},~{flags}"() #17, !srcloc !6
  %12 = icmp eq i8 %11, 1
  br i1 %12, label %13, label %16

13:                                               ; preds = %7
  %14 = getelementptr inbounds i64, ptr %6, i64 %indvars.iv
  %15 = load ptr, ptr %14, align 8
  tail call void @_ZN6Symbol18decrement_refcountEv(ptr noundef nonnull align 4 dereferenceable(8) %15) #17
  br label %16

16:                                               ; preds = %7, %13
  %indvars.iv.next = add nuw nsw i64 %indvars.iv, 1
  %17 = load i32, ptr %2, align 4
  %18 = sext i32 %17 to i64
  %19 = icmp slt i64 %indvars.iv.next, %18
  br i1 %19, label %7, label %._crit_edge, !llvm.loop !7

._crit_edge:                                      ; preds = %16, %1
  ret void
}